target datalayout = "e-m:e-p270:32:32-p271:32:32-p272:64:64-i64:64-i128:128-f80:128-n8:16:32:64-S128"
target triple = "x86_64-pc-linux-gnu"

%"class.clang::MultiplexASTDeserializationListener" = type { %"class.clang::ASTDeserializationListener", %"class.std::vector" }
%"class.clang::ASTDeserializationListener" = type { ptr }
%"class.std::vector" = type { %"struct.std::_Vector_base" }
%"struct.std::_Vector_base" = type { %"struct.std::_Vector_base<clang::ASTDeserializationListener *, std::allocator<clang::ASTDeserializationListener *>>::_Vector_impl" }
%"struct.std::_Vector_base<clang::ASTDeserializationListener *, std::allocator<clang::ASTDeserializationListener *>>::_Vector_impl" = type { %"struct.std::_Vector_base<clang::ASTDeserializationListener *, std::allocator<clang::ASTDeserializationListener *>>::_Vector_impl_data" }
%"struct.std::_Vector_base<clang::ASTDeserializationListener *, std::allocator<clang::ASTDeserializationListener *>>::_Vector_impl_data" = type { ptr, ptr, ptr }
%"class.clang::serialization::TypeIdx" = type { i32, i32 }
%"class.clang::QualType" = type { %"class.llvm::PointerIntPair" }
%"class.llvm::PointerIntPair" = type { %"struct.llvm::detail::PunnedPointer" }
%"struct.llvm::detail::PunnedPointer" = type { [8 x i8] }

; Function Attrs: mustprogress nounwind uwtable
define linkonce_odr hidden noundef nonnull align 8 dereferenceable(8) ptr @_ZNSt6vectorIPN5clang26ASTDeserializationListenerESaIS2_EEixEm(ptr noundef nonnull align 8 dereferenceable(24) %0, i64 noundef %1) #0 comdat align 2 {
  %3 = alloca ptr, align 8
  %4 = alloca i64, align 8
  store ptr %0, ptr %3, align 8
  store i64 %1, ptr %4, align 8
  %5 = load ptr, ptr %3, align 8
  %6 = getelementptr inbounds nuw %"struct.std::_Vector_base", ptr %5, i32 0, i32 0
  %7 = getelementptr inbounds nuw %"struct.std::_Vector_base<clang::ASTDeserializationListener *, std::allocator<clang::ASTDeserializationListener *>>::_Vector_impl_data", ptr %6, i32 0, i32 0
  %8 = load ptr, ptr %7, align 8
  %9 = load i64, ptr %4, align 8
  %10 = getelementptr inbounds ptr, ptr %8, i64 %9
  ret ptr %10
}

; Function Attrs: mustprogress nounwind uwtable
define linkonce_odr hidden noundef i64 @_ZNKSt6vectorIPN5clang26ASTDeserializationListenerESaIS2_EE4sizeEv(ptr noundef nonnull align 8 dereferenceable(24) %0) #0 comdat align 2 {
  %2 = alloca ptr, align 8
  store ptr %0, ptr %2, align 8
  %3 = load ptr, ptr %2, align 8
  %4 = getelementptr inbounds nuw %"struct.std::_Vector_base", ptr %3, i32 0, i32 0
  %5 = getelementptr inbounds nuw %"struct.std::_Vector_base<clang::ASTDeserializationListener *, std::allocator<clang::ASTDeserializationListener *>>::_Vector_impl_data", ptr %4, i32 0, i32 1
  %6 = load ptr, ptr %5, align 8
  %7 = getelementptr inbounds nuw %"struct.std::_Vector_base", ptr %3, i32 0, i32 0
  %8 = getelementptr inbounds nuw %"struct.std::_Vector_base<clang::ASTDeserializationListener *, std::allocator<clang::ASTDeserializationListener *>>::_Vector_impl_data", ptr %7, i32 0, i32 0
  %9 = load ptr, ptr %8, align 8
  %10 = ptrtoint ptr %6 to i64
  %11 = ptrtoint ptr %9 to i64
  %12 = sub i64 %10, %11
  %13 = sdiv exact i64 %12, 8
  ret i64 %13
}

; Function Attrs: mustprogress nounwind uwtable
define dso_local void @_ZN5clang35MultiplexASTDeserializationListener8TypeReadENS_13serialization7TypeIdxENS_8QualTypeE(ptr noundef nonnull align 8 dereferenceable(32) %0, i64 %1, i64 %2) unnamed_addr #0 align 2 {
  %4 = alloca %"class.clang::serialization::TypeIdx", align 4
  %5 = alloca %"class.clang::QualType", align 8
  %6 = alloca ptr, align 8
  %7 = alloca i64, align 8
  %8 = alloca i64, align 8
  %9 = alloca %"class.clang::serialization::TypeIdx", align 4
  %10 = alloca %"class.clang::QualType", align 8
  store i64 %1, ptr %4, align 4
  %11 = getelementptr inbounds nuw %"class.clang::QualType", ptr %5, i32 0, i32 0
  %12 = getelementptr inbounds nuw %"class.llvm::PointerIntPair", ptr %11, i32 0, i32 0
  %13 = getelementptr inbounds nuw %"struct.llvm::detail::PunnedPointer", ptr %12, i32 0, i32 0
  store i64 %2, ptr %13, align 8
  store ptr %0, ptr %6, align 8
  %14 = load ptr, ptr %6, align 8
  store i64 0, ptr %7, align 8
  %15 = getelementptr inbounds nuw %"class.clang::MultiplexASTDeserializationListener", ptr %14, i32 0, i32 1
  %16 = call noundef i64 @_ZNKSt6vectorIPN5clang26ASTDeserializationListenerESaIS2_EE4sizeEv(ptr noundef nonnull align 8 dereferenceable(24) %15) #8
  store i64 %16, ptr %8, align 8
  br label %17

17:                                               ; preds = %34, %3
  %18 = load i64, ptr %7, align 8
  %19 = load i64, ptr %8, align 8
  %20 = icmp ne i64 %18, %19
  br i1 %20, label %21, label %37

21:                                               ; preds = %17
  %22 = getelementptr inbounds nuw %"class.clang::MultiplexASTDeserializationListener", ptr %14, i32 0, i32 1
  %23 = load i64, ptr %7, align 8
  %24 = call noundef nonnull align 8 dereferenceable(8) ptr @_ZNSt6vectorIPN5clang26ASTDeserializationListenerESaIS2_EEixEm(ptr noundef nonnull align 8 dereferenceable(24) %22, i64 noundef %23) #8
  %25 = load ptr, ptr %24, align 8
  call void @llvm.memcpy.p0.p0.i64(ptr align 4 %9, ptr align 4 %4, i64 8, i1 false)
  call void @llvm.memcpy.p0.p0.i64(ptr align 8 %10, ptr align 8 %5, i64 8, i1 false)
  %26 = load i64, ptr %9, align 4
  %27 = getelementptr inbounds nuw %"class.clang::QualType", ptr %10, i32 0, i32 0
  %28 = getelementptr inbounds nuw %"class.llvm::PointerIntPair", ptr %27, i32 0, i32 0
  %29 = getelementptr inbounds nuw %"struct.llvm::detail::PunnedPointer", ptr %28, i32 0, i32 0
  %30 = load i64, ptr %29, align 8
  %31 = load ptr, ptr %25, align 8
  %32 = getelementptr inbounds ptr, ptr %31, i64 5
  %33 = load ptr, ptr %32, align 8
  call void %33(ptr noundef nonnull align 8 dereferenceable(8) %25, i64 %26, i64 %30)
  br label %34

34:                                               ; preds = %21
  %35 = load i64, ptr %7, align 8
  %36 = add i64 %35, 1
  store i64 %36, ptr %7, align 8
  br label %17, !llvm.loop !7

37:                                               ; preds = %17
  ret void
}